; Function Attrs: mustprogress nounwind uwtable
define dso_local void @_ZN5clang16ParentMapContext5clearEv(ptr nocapture noundef nonnull align 8 dereferenceable(24) %0) local_unnamed_addr #1 align 2 {
  %2 = getelementptr inbounds nuw i8, ptr %0, i64 16
  %3 = load ptr, ptr %2, align 8
  store ptr null, ptr %2, align 8
  %.not.i.i = icmp eq ptr %3, null
  br i1 %.not.i.i, label %_ZNSt10unique_ptrIN5clang16ParentMapContext9ParentMapESt14default_deleteIS2_EE5resetEPS2_.exit, label %_ZNKSt14default_deleteIN5clang16ParentMapContext9ParentMapEEclEPS2_.exit.i.i

_ZNKSt14default_deleteIN5clang16ParentMapContext9ParentMapEEclEPS2_.exit.i.i: ; preds = %1
  tail call void @_ZN5clang16ParentMapContext9ParentMapD2Ev(ptr noundef nonnull align 8 dereferenceable(48) %3) #16
  tail call void @_ZdlPvm(ptr noundef nonnull %3, i64 noundef 48) #17
  br label %_ZNSt10unique_ptrIN5clang16ParentMapContext9ParentMapESt14default_deleteIS2_EE5resetEPS2_.exit

_ZNSt10unique_ptrIN5clang16ParentMapContext9ParentMapESt14default_deleteIS2_EE5resetEPS2_.exit: ; preds = %1, %_ZNKSt14default_deleteIN5clang16ParentMapContext9ParentMapEEclEPS2_.exit.i.i
  ret void
}